target datalayout = "e-m:e-p270:32:32-p271:32:32-p272:64:64-i64:64-i128:128-f80:128-n8:16:32:64-S128"
target triple = "x86_64-pc-linux-gnu"

%struct.lua_State = type { %struct.GCRef, i8, i8, i8, i8, %struct.MRef, %struct.GCRef, ptr, ptr, %struct.MRef, %struct.MRef, %struct.GCRef, %struct.GCRef, ptr, i32 }
%struct.MRef = type { i64 }
%struct.GCRef = type { i64 }
%union.TValue = type { i64 }
%struct.CTState = type { ptr, i32, i32, ptr, ptr, ptr, %struct.CCallback, [128 x i16] }
%struct.CCallback = type { [8 x %union.FPRCBArg], [8 x i64], ptr, ptr, ptr, i32, i32, i32 }
%union.FPRCBArg = type { double }
%struct.global_State = type { ptr, ptr, %struct.GCState, %struct.GCstr, i8, i8, i8, i8, %struct.StrInternState, i32, %struct.GCRef, %struct.SBuf, %union.TValue, %union.TValue, %struct.Node, %union.TValue, %struct.GCupval, i32, i32, ptr, ptr, ptr, i32, i32, %struct.GCRef, %struct.MRef, %struct.MRef, %struct.PRNGState, [39 x %struct.GCRef] }
%struct.GCState = type { i64, i64, i8, i8, i8, i8, i32, %struct.GCRef, %struct.MRef, %struct.GCRef, %struct.GCRef, %struct.GCRef, %struct.GCRef, i64, i64, i32, i32, %struct.MRef }
%struct.GCstr = type { %struct.GCRef, i8, i8, i8, i8, i32, i32, i32 }
%struct.StrInternState = type { ptr, i32, i32, i32, i8, i8, i8, i8, i64 }
%struct.SBuf = type { ptr, ptr, ptr, %struct.MRef }
%struct.Node = type { %union.TValue, %union.TValue, %struct.MRef }
%struct.GCupval = type { %struct.GCRef, i8, i8, i8, i8, %union.anon, %struct.MRef, i32 }
%union.anon = type { %struct.anon.1 }
%struct.anon.1 = type { %struct.GCRef, %struct.GCRef }
%struct.PRNGState = type { [4 x i64] }
%struct.GChead = type { %struct.GCRef, i8, i8, i8, i8, %struct.GCRef, %struct.GCRef, %struct.GCRef }
%struct.GCcdata = type { %struct.GCRef, i8, i8, i16 }
%struct.CType = type { i32, i32, i16, i16, %struct.GCRef }
%struct.GCtab = type { %struct.GCRef, i8, i8, i8, i8, %struct.MRef, %struct.GCRef, %struct.GCRef, %struct.MRef, i32, i32, %struct.MRef }

@.str.2 = private unnamed_addr constant [24 x i8] c"store to dead GC object\00", align 1

; Function Attrs: alwaysinline nounwind uwtable
define internal void @checklivetv(ptr noundef %0, ptr noundef %1, ptr noundef %2) #3 {
  %4 = alloca ptr, align 8
  %5 = alloca ptr, align 8
  %6 = alloca ptr, align 8
  store ptr %0, ptr %4, align 8, !tbaa !4
  store ptr %1, ptr %5, align 8, !tbaa !30
  store ptr %2, ptr %6, align 8, !tbaa !35
  ret void
}

; Function Attrs: alwaysinline nounwind uwtable
define internal void @setgcVraw(ptr noundef %0, ptr noundef %1, i32 noundef %2) #3 {
  %4 = alloca ptr, align 8
  %5 = alloca ptr, align 8
  %6 = alloca i32, align 4
  store ptr %0, ptr %4, align 8, !tbaa !30
  store ptr %1, ptr %5, align 8, !tbaa !32
  store i32 %2, ptr %6, align 4, !tbaa !34
  %7 = load ptr, ptr %5, align 8, !tbaa !32
  %8 = ptrtoint ptr %7 to i64
  %9 = load i32, ptr %6, align 4, !tbaa !34
  %10 = zext i32 %9 to i64
  %11 = shl i64 %10, 47
  %12 = or i64 %8, %11
  %13 = load ptr, ptr %4, align 8, !tbaa !30
  %14 = getelementptr inbounds nuw %struct.GCRef, ptr %13, i32 0, i32 0
  store i64 %12, ptr %14, align 8, !tbaa !26
  ret void
}

; Function Attrs: alwaysinline nounwind uwtable
define internal i32 @ctype_check(ptr noundef %0, i32 noundef %1) #3 {
  %3 = alloca ptr, align 8
  %4 = alloca i32, align 4
  store ptr %0, ptr %3, align 8, !tbaa !9
  store i32 %1, ptr %4, align 4, !tbaa !34
  %5 = load i32, ptr %4, align 4, !tbaa !34
  ret i32 %5
}

; Function Attrs: alwaysinline nounwind uwtable
define internal void @setgcV(ptr noundef %0, ptr noundef %1, ptr noundef %2, i32 noundef %3) #3 {
  %5 = alloca ptr, align 8
  %6 = alloca ptr, align 8
  %7 = alloca ptr, align 8
  %8 = alloca i32, align 4
  store ptr %0, ptr %5, align 8, !tbaa !4
  store ptr %1, ptr %6, align 8, !tbaa !30
  store ptr %2, ptr %7, align 8, !tbaa !32
  store i32 %3, ptr %8, align 4, !tbaa !34
  %9 = load ptr, ptr %6, align 8, !tbaa !30
  %10 = load ptr, ptr %7, align 8, !tbaa !32
  %11 = load i32, ptr %8, align 4, !tbaa !34
  call void @setgcVraw(ptr noundef %9, ptr noundef %10, i32 noundef %11)
  %12 = load ptr, ptr %5, align 8, !tbaa !4
  %13 = load ptr, ptr %6, align 8, !tbaa !30
  call void @checklivetv(ptr noundef %12, ptr noundef %13, ptr noundef @.str.2)
  ret void
}

; Function Attrs: alwaysinline nounwind uwtable
define internal ptr @ctype_child(ptr noundef %0, ptr noundef %1) #3 {
  %3 = alloca ptr, align 8
  %4 = alloca ptr, align 8
  store ptr %0, ptr %3, align 8, !tbaa !9
  store ptr %1, ptr %4, align 8, !tbaa !38
  %5 = load ptr, ptr %3, align 8, !tbaa !9
  %6 = load ptr, ptr %4, align 8, !tbaa !38
  %7 = getelementptr inbounds nuw %struct.CType, ptr %6, i32 0, i32 0
  %8 = load i32, ptr %7, align 8, !tbaa !55
  %9 = and i32 %8, 65535
  %10 = call ptr @ctype_get(ptr noundef %5, i32 noundef %9)
  ret ptr %10
}

; Function Attrs: alwaysinline nounwind uwtable
define internal ptr @ctype_get(ptr noundef %0, i32 noundef %1) #3 {
  %3 = alloca ptr, align 8
  %4 = alloca i32, align 4
  store ptr %0, ptr %3, align 8, !tbaa !9
  store i32 %1, ptr %4, align 4, !tbaa !34
  %5 = load ptr, ptr %3, align 8, !tbaa !9
  %6 = getelementptr inbounds nuw %struct.CTState, ptr %5, i32 0, i32 0
  %7 = load ptr, ptr %6, align 8, !tbaa !60
  %8 = load ptr, ptr %3, align 8, !tbaa !9
  %9 = load i32, ptr %4, align 4, !tbaa !34
  %10 = call i32 @ctype_check(ptr noundef %8, i32 noundef %9)
  %11 = zext i32 %10 to i64
  %12 = getelementptr inbounds nuw %struct.CType, ptr %7, i64 %11
  ret ptr %12
}

; Function Attrs: alwaysinline nounwind uwtable
define internal void @lj_gc_barrierback(ptr noundef %0, ptr noundef %1) #3 {
  %3 = alloca ptr, align 8
  %4 = alloca ptr, align 8
  %5 = alloca ptr, align 8
  store ptr %0, ptr %3, align 8, !tbaa !80
  store ptr %1, ptr %4, align 8, !tbaa !31
  call void @llvm.lifetime.start.p0(i64 8, ptr %5) #10
  %6 = load ptr, ptr %4, align 8, !tbaa !31
  store ptr %6, ptr %5, align 8, !tbaa !32
  %7 = load ptr, ptr %5, align 8, !tbaa !32
  %8 = getelementptr inbounds nuw %struct.GChead, ptr %7, i32 0, i32 1
  %9 = load i8, ptr %8, align 8, !tbaa !26
  %10 = zext i8 %9 to i32
  %11 = and i32 %10, 251
  %12 = trunc i32 %11 to i8
  store i8 %12, ptr %8, align 8, !tbaa !26
  %13 = load ptr, ptr %3, align 8, !tbaa !80
  %14 = getelementptr inbounds nuw %struct.global_State, ptr %13, i32 0, i32 2
  %15 = getelementptr inbounds nuw %struct.GCState, ptr %14, i32 0, i32 10
  %16 = getelementptr inbounds nuw %struct.GCRef, ptr %15, i32 0, i32 0
  %17 = load i64, ptr %16, align 8, !tbaa !81
  %18 = load ptr, ptr %4, align 8, !tbaa !31
  %19 = getelementptr inbounds nuw %struct.GCtab, ptr %18, i32 0, i32 6
  %20 = getelementptr inbounds nuw %struct.GCRef, ptr %19, i32 0, i32 0
  store i64 %17, ptr %20, align 8, !tbaa !82
  %21 = load ptr, ptr %5, align 8, !tbaa !32
  %22 = ptrtoint ptr %21 to i64
  %23 = load ptr, ptr %3, align 8, !tbaa !80
  %24 = getelementptr inbounds nuw %struct.global_State, ptr %23, i32 0, i32 2
  %25 = getelementptr inbounds nuw %struct.GCState, ptr %24, i32 0, i32 10
  %26 = getelementptr inbounds nuw %struct.GCRef, ptr %25, i32 0, i32 0
  store i64 %22, ptr %26, align 8, !tbaa !81
  call void @llvm.lifetime.end.p0(i64 8, ptr %5) #10
  ret void
}

; Function Attrs: alwaysinline nounwind uwtable
define internal void @setfuncV(ptr noundef %0, ptr noundef %1, ptr noundef %2) #3 {
  %4 = alloca ptr, align 8
  %5 = alloca ptr, align 8
  %6 = alloca ptr, align 8
  store ptr %0, ptr %4, align 8, !tbaa !4
  store ptr %1, ptr %5, align 8, !tbaa !30
  store ptr %2, ptr %6, align 8, !tbaa !86
  %7 = load ptr, ptr %4, align 8, !tbaa !4
  %8 = load ptr, ptr %5, align 8, !tbaa !30
  %9 = load ptr, ptr %6, align 8, !tbaa !86
  call void @setgcV(ptr noundef %7, ptr noundef %8, ptr noundef %9, i32 noundef -9)
  ret void
}

; Function Attrs: alwaysinline nounwind uwtable
define internal ptr @ctype_raw(ptr noundef %0, i32 noundef %1) #3 {
  %3 = alloca ptr, align 8
  %4 = alloca i32, align 4
  %5 = alloca ptr, align 8
  store ptr %0, ptr %3, align 8, !tbaa !9
  store i32 %1, ptr %4, align 4, !tbaa !34
  call void @llvm.lifetime.start.p0(i64 8, ptr %5) #10
  %6 = load ptr, ptr %3, align 8, !tbaa !9
  %7 = load i32, ptr %4, align 4, !tbaa !34
  %8 = call ptr @ctype_get(ptr noundef %6, i32 noundef %7)
  store ptr %8, ptr %5, align 8, !tbaa !38
  br label %9

9:                                                ; preds = %15, %2
  %10 = load ptr, ptr %5, align 8, !tbaa !38
  %11 = getelementptr inbounds nuw %struct.CType, ptr %10, i32 0, i32 0
  %12 = load i32, ptr %11, align 8, !tbaa !55
  %13 = lshr i32 %12, 28
  %14 = icmp eq i32 %13, 8
  br i1 %14, label %15, label %19

15:                                               ; preds = %9
  %16 = load ptr, ptr %3, align 8, !tbaa !9
  %17 = load ptr, ptr %5, align 8, !tbaa !38
  %18 = call ptr @ctype_child(ptr noundef %16, ptr noundef %17)
  store ptr %18, ptr %5, align 8, !tbaa !38
  br label %9, !llvm.loop !64

19:                                               ; preds = %9
  %20 = load ptr, ptr %5, align 8, !tbaa !38
  call void @llvm.lifetime.end.p0(i64 8, ptr %5) #10
  ret ptr %20
}

; Function Attrs: alwaysinline nounwind uwtable
define internal ptr @ctype_cts(ptr noundef %0) #3 {
  %2 = alloca ptr, align 8
  %3 = alloca ptr, align 8
  store ptr %0, ptr %2, align 8, !tbaa !4
  call void @llvm.lifetime.start.p0(i64 8, ptr %3) #10
  %4 = load ptr, ptr %2, align 8, !tbaa !4
  %5 = getelementptr inbounds nuw %struct.lua_State, ptr %4, i32 0, i32 5
  %6 = getelementptr inbounds nuw %struct.MRef, ptr %5, i32 0, i32 0
  %7 = load i64, ptr %6, align 8, !tbaa !27
  %8 = inttoptr i64 %7 to ptr
  %9 = getelementptr inbounds nuw %struct.global_State, ptr %8, i32 0, i32 26
  %10 = getelementptr inbounds nuw %struct.MRef, ptr %9, i32 0, i32 0
  %11 = load i64, ptr %10, align 8, !tbaa !61
  %12 = inttoptr i64 %11 to ptr
  store ptr %12, ptr %3, align 8, !tbaa !9
  %13 = load ptr, ptr %2, align 8, !tbaa !4
  %14 = load ptr, ptr %3, align 8, !tbaa !9
  %15 = getelementptr inbounds nuw %struct.CTState, ptr %14, i32 0, i32 3
  store ptr %13, ptr %15, align 8, !tbaa !62
  %16 = load ptr, ptr %3, align 8, !tbaa !9
  call void @llvm.lifetime.end.p0(i64 8, ptr %3) #10
  ret ptr %16
}

; Function Attrs: nounwind uwtable
define internal ptr @ffi_checkcdata(ptr noundef %0, i32 noundef %1) #0 {
  %3 = alloca ptr, align 8
  %4 = alloca i32, align 4
  %5 = alloca ptr, align 8
  store ptr %0, ptr %3, align 8, !tbaa !4
  store i32 %1, ptr %4, align 4, !tbaa !34
  call void @llvm.lifetime.start.p0(i64 8, ptr %5) #10
  %6 = load ptr, ptr %3, align 8, !tbaa !4
  %7 = getelementptr inbounds nuw %struct.lua_State, ptr %6, i32 0, i32 7
  %8 = load ptr, ptr %7, align 8, !tbaa !37
  %9 = load i32, ptr %4, align 4, !tbaa !34
  %10 = sext i32 %9 to i64
  %11 = getelementptr inbounds %union.TValue, ptr %8, i64 %10
  %12 = getelementptr inbounds %union.TValue, ptr %11, i64 -1
  store ptr %12, ptr %5, align 8, !tbaa !30
  %13 = load ptr, ptr %5, align 8, !tbaa !30
  %14 = load ptr, ptr %3, align 8, !tbaa !4
  %15 = getelementptr inbounds nuw %struct.lua_State, ptr %14, i32 0, i32 8
  %16 = load ptr, ptr %15, align 8, !tbaa !11
  %17 = icmp ult ptr %13, %16
  br i1 %17, label %18, label %24

18:                                               ; preds = %2
  %19 = load ptr, ptr %5, align 8, !tbaa !30
  %20 = load i64, ptr %19, align 8, !tbaa !26
  %21 = ashr i64 %20, 47
  %22 = trunc i64 %21 to i32
  %23 = icmp eq i32 %22, -11
  br i1 %23, label %27, label %24

24:                                               ; preds = %18, %2
  %25 = load ptr, ptr %3, align 8, !tbaa !4
  %26 = load i32, ptr %4, align 4, !tbaa !34
  call void @lj_err_argt(ptr noundef %25, i32 noundef %26, i32 noundef 10) #11
  unreachable

27:                                               ; preds = %18
  %28 = load ptr, ptr %5, align 8, !tbaa !30
  %29 = getelementptr inbounds nuw %struct.GCRef, ptr %28, i32 0, i32 0
  %30 = load i64, ptr %29, align 8, !tbaa !26
  %31 = and i64 %30, 140737488355327
  %32 = inttoptr i64 %31 to ptr
  call void @llvm.lifetime.end.p0(i64 8, ptr %5) #10
  ret ptr %32
}

; Function Attrs: nounwind uwtable
define internal i32 @ffi_callback_set(ptr noundef %0, ptr noundef %1) #0 {
  %3 = alloca i32, align 4
  %4 = alloca ptr, align 8
  %5 = alloca ptr, align 8
  %6 = alloca ptr, align 8
  %7 = alloca ptr, align 8
  %8 = alloca ptr, align 8
  %9 = alloca i32, align 4
  %10 = alloca ptr, align 8
  %11 = alloca ptr, align 8
  %12 = alloca i32, align 4
  store ptr %0, ptr %4, align 8, !tbaa !4
  store ptr %1, ptr %5, align 8, !tbaa !86
  call void @llvm.lifetime.start.p0(i64 8, ptr %6) #10
  %13 = load ptr, ptr %4, align 8, !tbaa !4
  %14 = call ptr @ffi_checkcdata(ptr noundef %13, i32 noundef 1)
  store ptr %14, ptr %6, align 8, !tbaa !50
  call void @llvm.lifetime.start.p0(i64 8, ptr %7) #10
  %15 = load ptr, ptr %4, align 8, !tbaa !4
  %16 = call ptr @ctype_cts(ptr noundef %15)
  store ptr %16, ptr %7, align 8, !tbaa !9
  call void @llvm.lifetime.start.p0(i64 8, ptr %8) #10
  %17 = load ptr, ptr %7, align 8, !tbaa !9
  %18 = load ptr, ptr %6, align 8, !tbaa !50
  %19 = getelementptr inbounds nuw %struct.GCcdata, ptr %18, i32 0, i32 3
  %20 = load i16, ptr %19, align 2, !tbaa !52
  %21 = zext i16 %20 to i32
  %22 = call ptr @ctype_raw(ptr noundef %17, i32 noundef %21)
  store ptr %22, ptr %8, align 8, !tbaa !38
  %23 = load ptr, ptr %8, align 8, !tbaa !38
  %24 = getelementptr inbounds nuw %struct.CType, ptr %23, i32 0, i32 0
  %25 = load i32, ptr %24, align 8, !tbaa !55
  %26 = lshr i32 %25, 28
  %27 = icmp eq i32 %26, 2
  br i1 %27, label %28, label %139

28:                                               ; preds = %2
  %29 = load ptr, ptr %8, align 8, !tbaa !38
  %30 = getelementptr inbounds nuw %struct.CType, ptr %29, i32 0, i32 1
  %31 = load i32, ptr %30, align 4, !tbaa !58
  %32 = icmp eq i32 %31, 8
  br i1 %32, label %33, label %139

33:                                               ; preds = %28
  call void @llvm.lifetime.start.p0(i64 4, ptr %9) #10
  %34 = load ptr, ptr %7, align 8, !tbaa !9
  %35 = load ptr, ptr %6, align 8, !tbaa !50
  %36 = getelementptr inbounds %struct.GCcdata, ptr %35, i64 1
  %37 = load ptr, ptr %36, align 8, !tbaa !57
  %38 = call i32 @lj_ccallback_ptr2slot(ptr noundef %34, ptr noundef %37)
  store i32 %38, ptr %9, align 4, !tbaa !34
  %39 = load i32, ptr %9, align 4, !tbaa !34
  %40 = load ptr, ptr %7, align 8, !tbaa !9
  %41 = getelementptr inbounds nuw %struct.CTState, ptr %40, i32 0, i32 6
  %42 = getelementptr inbounds nuw %struct.CCallback, ptr %41, i32 0, i32 5
  %43 = load i32, ptr %42, align 8, !tbaa !88
  %44 = icmp ult i32 %39, %43
  br i1 %44, label %45, label %135

45:                                               ; preds = %33
  %46 = load ptr, ptr %7, align 8, !tbaa !9
  %47 = getelementptr inbounds nuw %struct.CTState, ptr %46, i32 0, i32 6
  %48 = getelementptr inbounds nuw %struct.CCallback, ptr %47, i32 0, i32 4
  %49 = load ptr, ptr %48, align 8, !tbaa !89
  %50 = load i32, ptr %9, align 4, !tbaa !34
  %51 = zext i32 %50 to i64
  %52 = getelementptr inbounds nuw i16, ptr %49, i64 %51
  %53 = load i16, ptr %52, align 2, !tbaa !90
  %54 = zext i16 %53 to i32
  %55 = icmp ne i32 %54, 0
  br i1 %55, label %56, label %135

56:                                               ; preds = %45
  call void @llvm.lifetime.start.p0(i64 8, ptr %10) #10
  %57 = load ptr, ptr %7, align 8, !tbaa !9
  %58 = getelementptr inbounds nuw %struct.CTState, ptr %57, i32 0, i32 5
  %59 = load ptr, ptr %58, align 8, !tbaa !18
  store ptr %59, ptr %10, align 8, !tbaa !31
  call void @llvm.lifetime.start.p0(i64 8, ptr %11) #10
  %60 = load i32, ptr %9, align 4, !tbaa !34
  %61 = load ptr, ptr %10, align 8, !tbaa !31
  %62 = getelementptr inbounds nuw %struct.GCtab, ptr %61, i32 0, i32 9
  %63 = load i32, ptr %62, align 8, !tbaa !91
  %64 = icmp ult i32 %60, %63
  br i1 %64, label %65, label %74

65:                                               ; preds = %56
  %66 = load ptr, ptr %10, align 8, !tbaa !31
  %67 = getelementptr inbounds nuw %struct.GCtab, ptr %66, i32 0, i32 5
  %68 = getelementptr inbounds nuw %struct.MRef, ptr %67, i32 0, i32 0
  %69 = load i64, ptr %68, align 8, !tbaa !92
  %70 = inttoptr i64 %69 to ptr
  %71 = load i32, ptr %9, align 4, !tbaa !34
  %72 = sext i32 %71 to i64
  %73 = getelementptr inbounds %union.TValue, ptr %70, i64 %72
  br label %79

74:                                               ; preds = %56
  %75 = load ptr, ptr %4, align 8, !tbaa !4
  %76 = load ptr, ptr %10, align 8, !tbaa !31
  %77 = load i32, ptr %9, align 4, !tbaa !34
  %78 = call ptr @lj_tab_setinth(ptr noundef %75, ptr noundef %76, i32 noundef %77)
  br label %79

79:                                               ; preds = %74, %65
  %80 = phi ptr [ %73, %65 ], [ %78, %74 ]
  store ptr %80, ptr %11, align 8, !tbaa !30
  %81 = load ptr, ptr %5, align 8, !tbaa !86
  %82 = icmp ne ptr %81, null
  br i1 %82, label %83, label %107

83:                                               ; preds = %79
  %84 = load ptr, ptr %4, align 8, !tbaa !4
  %85 = load ptr, ptr %11, align 8, !tbaa !30
  %86 = load ptr, ptr %5, align 8, !tbaa !86
  call void @setfuncV(ptr noundef %84, ptr noundef %85, ptr noundef %86)
  %87 = load ptr, ptr %10, align 8, !tbaa !31
  %88 = getelementptr inbounds nuw %struct.GChead, ptr %87, i32 0, i32 1
  %89 = load i8, ptr %88, align 8, !tbaa !26
  %90 = zext i8 %89 to i32
  %91 = and i32 %90, 4
  %92 = icmp ne i32 %91, 0
  %93 = xor i1 %92, true
  %94 = xor i1 %93, true
  %95 = zext i1 %94 to i32
  %96 = sext i32 %95 to i64
  %97 = call i64 @llvm.expect.i64(i64 %96, i64 0)
  %98 = icmp ne i64 %97, 0
  br i1 %98, label %99, label %106

99:                                               ; preds = %83
  %100 = load ptr, ptr %4, align 8, !tbaa !4
  %101 = getelementptr inbounds nuw %struct.lua_State, ptr %100, i32 0, i32 5
  %102 = getelementptr inbounds nuw %struct.MRef, ptr %101, i32 0, i32 0
  %103 = load i64, ptr %102, align 8, !tbaa !27
  %104 = inttoptr i64 %103 to ptr
  %105 = load ptr, ptr %10, align 8, !tbaa !31
  call void @lj_gc_barrierback(ptr noundef %104, ptr noundef %105)
  br label %106

106:                                              ; preds = %99, %83
  br label %134

107:                                              ; preds = %79
  %108 = load ptr, ptr %11, align 8, !tbaa !30
  store i64 -1, ptr %108, align 8, !tbaa !26
  %109 = load ptr, ptr %7, align 8, !tbaa !9
  %110 = getelementptr inbounds nuw %struct.CTState, ptr %109, i32 0, i32 6
  %111 = getelementptr inbounds nuw %struct.CCallback, ptr %110, i32 0, i32 4
  %112 = load ptr, ptr %111, align 8, !tbaa !89
  %113 = load i32, ptr %9, align 4, !tbaa !34
  %114 = zext i32 %113 to i64
  %115 = getelementptr inbounds nuw i16, ptr %112, i64 %114
  store i16 0, ptr %115, align 2, !tbaa !90
  %116 = load i32, ptr %9, align 4, !tbaa !34
  %117 = load ptr, ptr %7, align 8, !tbaa !9
  %118 = getelementptr inbounds nuw %struct.CTState, ptr %117, i32 0, i32 6
  %119 = getelementptr inbounds nuw %struct.CCallback, ptr %118, i32 0, i32 6
  %120 = load i32, ptr %119, align 4, !tbaa !93
  %121 = icmp ult i32 %116, %120
  br i1 %121, label %122, label %124

122:                                              ; preds = %107
  %123 = load i32, ptr %9, align 4, !tbaa !34
  br label %129

124:                                              ; preds = %107
  %125 = load ptr, ptr %7, align 8, !tbaa !9
  %126 = getelementptr inbounds nuw %struct.CTState, ptr %125, i32 0, i32 6
  %127 = getelementptr inbounds nuw %struct.CCallback, ptr %126, i32 0, i32 6
  %128 = load i32, ptr %127, align 4, !tbaa !93
  br label %129

129:                                              ; preds = %124, %122
  %130 = phi i32 [ %123, %122 ], [ %128, %124 ]
  %131 = load ptr, ptr %7, align 8, !tbaa !9
  %132 = getelementptr inbounds nuw %struct.CTState, ptr %131, i32 0, i32 6
  %133 = getelementptr inbounds nuw %struct.CCallback, ptr %132, i32 0, i32 6
  store i32 %130, ptr %133, align 4, !tbaa !93
  br label %134

134:                                              ; preds = %129, %106
  store i32 0, ptr %3, align 4
  store i32 1, ptr %12, align 4
  call void @llvm.lifetime.end.p0(i64 8, ptr %11) #10
  call void @llvm.lifetime.end.p0(i64 8, ptr %10) #10
  br label %136

135:                                              ; preds = %45, %33
  store i32 0, ptr %12, align 4
  br label %136

136:                                              ; preds = %135, %134
  call void @llvm.lifetime.end.p0(i64 4, ptr %9) #10
  %137 = load i32, ptr %12, align 4
  switch i32 %137, label %141 [
    i32 0, label %138
  ]

138:                                              ; preds = %136
  br label %139

139:                                              ; preds = %138, %28, %2
  %140 = load ptr, ptr %4, align 8, !tbaa !4
  call void @lj_err_caller(ptr noundef %140, i32 noundef 3668) #11
  unreachable

141:                                              ; preds = %136
  call void @llvm.lifetime.end.p0(i64 8, ptr %8) #10
  call void @llvm.lifetime.end.p0(i64 8, ptr %7) #10
  call void @llvm.lifetime.end.p0(i64 8, ptr %6) #10
  %142 = load i32, ptr %3, align 4
  ret i32 %142
}