; Function Attrs: nounwind uwtable
define internal fastcc void @ffi_callback_set(ptr noundef %0, ptr noundef %1) unnamed_addr #0 {
  %3 = getelementptr inbounds nuw i8, ptr %0, i64 32
  %4 = load ptr, ptr %3, align 8, !tbaa !44
  %5 = getelementptr inbounds nuw i8, ptr %0, i64 40
  %6 = load ptr, ptr %5, align 8, !tbaa !4
  %7 = icmp ult ptr %4, %6
  br i1 %7, label %8, label %11

8:                                                ; preds = %2
  %9 = load i64, ptr %4, align 8, !tbaa !23
  %.mask.i = and i64 %9, -140737488355328
  %10 = icmp eq i64 %.mask.i, -1548112371908608
  br i1 %10, label %ffi_checkcdata.exit, label %11

11:                                               ; preds = %8, %2
  tail call void @lj_err_argt(ptr noundef nonnull %0, i32 noundef 1, i32 noundef 10) #10
  unreachable

ffi_checkcdata.exit:                              ; preds = %8
  %12 = and i64 %9, 140737488355327
  %13 = inttoptr i64 %12 to ptr
  %14 = getelementptr inbounds nuw i8, ptr %0, i64 16
  %15 = load i64, ptr %14, align 8, !tbaa !24
  %16 = inttoptr i64 %15 to ptr
  %17 = getelementptr inbounds nuw i8, ptr %16, i64 384
  %18 = load i64, ptr %17, align 8, !tbaa !41
  %19 = inttoptr i64 %18 to ptr
  %20 = getelementptr inbounds nuw i8, ptr %19, i64 16
  store ptr %0, ptr %20, align 8, !tbaa !42
  %21 = getelementptr inbounds nuw i8, ptr %13, i64 10
  %22 = load i16, ptr %21, align 2, !tbaa !48
  %23 = load ptr, ptr %19, align 8, !tbaa !51
  %24 = zext i16 %22 to i64
  br label %25

25:                                               ; preds = %25, %ffi_checkcdata.exit
  %.pn = phi i64 [ %24, %ffi_checkcdata.exit ], [ %29, %25 ]
  %.0.i = getelementptr inbounds nuw %struct.CType, ptr %23, i64 %.pn
  %26 = load i32, ptr %.0.i, align 8, !tbaa !52
  %27 = icmp slt i32 %26, -1879048192
  %28 = and i32 %26, 65535
  %29 = zext nneg i32 %28 to i64
  br i1 %27, label %25, label %ctype_raw.exit, !llvm.loop !54

ctype_raw.exit:                                   ; preds = %25
  %.mask = and i32 %26, -268435456
  %30 = icmp eq i32 %.mask, 536870912
  br i1 %30, label %31, label %83

31:                                               ; preds = %ctype_raw.exit
  %32 = getelementptr inbounds nuw i8, ptr %.0.i, i64 4
  %33 = load i32, ptr %32, align 4, !tbaa !58
  %34 = icmp eq i32 %33, 8
  br i1 %34, label %35, label %83

35:                                               ; preds = %31
  %36 = getelementptr inbounds nuw i8, ptr %13, i64 16
  %37 = load ptr, ptr %36, align 8, !tbaa !56
  %38 = tail call i32 @lj_ccallback_ptr2slot(ptr noundef nonnull %19, ptr noundef %37) #9
  %39 = getelementptr inbounds nuw i8, ptr %19, i64 192
  %40 = load i32, ptr %39, align 8, !tbaa !73
  %41 = icmp ult i32 %38, %40
  br i1 %41, label %42, label %83

42:                                               ; preds = %35
  %43 = getelementptr inbounds nuw i8, ptr %19, i64 184
  %44 = load ptr, ptr %43, align 8, !tbaa !74
  %45 = zext i32 %38 to i64
  %46 = getelementptr inbounds nuw i16, ptr %44, i64 %45
  %47 = load i16, ptr %46, align 2, !tbaa !75
  %.not = icmp eq i16 %47, 0
  br i1 %.not, label %83, label %48

48:                                               ; preds = %42
  %49 = getelementptr inbounds nuw i8, ptr %19, i64 32
  %50 = load ptr, ptr %49, align 8, !tbaa !14
  %51 = getelementptr inbounds nuw i8, ptr %50, i64 48
  %52 = load i32, ptr %51, align 8, !tbaa !76
  %53 = icmp ult i32 %38, %52
  br i1 %53, label %54, label %60

54:                                               ; preds = %48
  %55 = getelementptr inbounds nuw i8, ptr %50, i64 16
  %56 = load i64, ptr %55, align 8, !tbaa !77
  %57 = inttoptr i64 %56 to ptr
  %58 = sext i32 %38 to i64
  %59 = getelementptr inbounds %union.TValue, ptr %57, i64 %58
  br label %62

60:                                               ; preds = %48
  %61 = tail call ptr @lj_tab_setinth(ptr noundef %0, ptr noundef nonnull %50, i32 noundef %38) #9
  br label %62

62:                                               ; preds = %60, %54
  %63 = phi ptr [ %59, %54 ], [ %61, %60 ]
  %.not40 = icmp eq ptr %1, null
  br i1 %.not40, label %78, label %64

64:                                               ; preds = %62
  %65 = ptrtoint ptr %1 to i64
  %66 = or i64 %65, -1266637395197952
  store i64 %66, ptr %63, align 8, !tbaa !23
  %67 = getelementptr inbounds nuw i8, ptr %50, i64 8
  %68 = load i8, ptr %67, align 8, !tbaa !23
  %69 = and i8 %68, 4
  %.not41 = icmp eq i8 %69, 0
  br i1 %.not41, label %.critedge, label %70, !prof !27

70:                                               ; preds = %64
  %71 = load i64, ptr %14, align 8, !tbaa !24
  %72 = inttoptr i64 %71 to ptr
  %73 = and i8 %68, -5
  store i8 %73, ptr %67, align 8, !tbaa !23
  %74 = getelementptr inbounds nuw i8, ptr %72, i64 64
  %75 = load i64, ptr %74, align 8, !tbaa !28
  %76 = getelementptr inbounds nuw i8, ptr %50, i64 24
  store i64 %75, ptr %76, align 8, !tbaa !39
  %77 = ptrtoint ptr %50 to i64
  store i64 %77, ptr %74, align 8, !tbaa !28
  br label %.critedge

78:                                               ; preds = %62
  store i64 -1, ptr %63, align 8, !tbaa !23
  %79 = load ptr, ptr %43, align 8, !tbaa !74
  %80 = getelementptr inbounds nuw i16, ptr %79, i64 %45
  store i16 0, ptr %80, align 2, !tbaa !75
  %81 = getelementptr inbounds nuw i8, ptr %19, i64 196
  %82 = load i32, ptr %81, align 4, !tbaa !78
  %. = tail call i32 @llvm.umin.i32(i32 %38, i32 %82)
  store i32 %., ptr %81, align 4, !tbaa !78
  br label %.critedge

83:                                               ; preds = %42, %35, %31, %ctype_raw.exit
  tail call void @lj_err_caller(ptr noundef %0, i32 noundef 3668) #10
  unreachable

.critedge:                                        ; preds = %64, %70, %78
  ret void
}